target datalayout = "e-m:e-p270:32:32-p271:32:32-p272:64:64-i64:64-i128:128-f80:128-n8:16:32:64-S128"
target triple = "x86_64-pc-linux-gnu"

%"class.Luau::DenseHashSet.870" = type { %"class.Luau::detail::DenseHashTable.871" }
%"class.Luau::detail::DenseHashTable.871" = type <{ ptr, i64, i64, ptr, [8 x i8] }>
%"struct.Luau::GenericTypeVisitor" = type <{ ptr, %"class.Luau::DenseHashSet.870", i8, [3 x i8], i32, i32, [4 x i8] }>

; Function Attrs: mustprogress nounwind uwtable
define linkonce_odr dso_local void @_ZN4Luau6detail16ItemInterfaceSetIPvE7destroyEPS2_m(ptr noundef %0, i64 noundef %1) #2 comdat align 2 {
  %3 = alloca ptr, align 8
  %4 = alloca i64, align 8
  %5 = alloca i64, align 8
  store ptr %0, ptr %3, align 8, !tbaa !1865
  store i64 %1, ptr %4, align 8, !tbaa !173
  call void @llvm.lifetime.start.p0(i64 8, ptr %5) #22
  store i64 0, ptr %5, align 8, !tbaa !173
  br label %6

6:                                                ; preds = %12, %2
  %7 = load i64, ptr %5, align 8, !tbaa !173
  %8 = load i64, ptr %4, align 8, !tbaa !173
  %9 = icmp ult i64 %7, %8
  br i1 %9, label %11, label %10

10:                                               ; preds = %6
  call void @llvm.lifetime.end.p0(i64 8, ptr %5) #22
  br label %15

11:                                               ; preds = %6
  br label %12

12:                                               ; preds = %11
  %13 = load i64, ptr %5, align 8, !tbaa !173
  %14 = add i64 %13, 1
  store i64 %14, ptr %5, align 8, !tbaa !173
  br label %6, !llvm.loop !1875

15:                                               ; preds = %10
  ret void
}

; Function Attrs: noinline noreturn nounwind uwtable
define linkonce_odr hidden void @__clang_call_terminate(ptr noundef %0) #14 comdat {
  %2 = call ptr @__cxa_begin_catch(ptr %0) #22
  call void @_ZSt9terminatev() #23
  unreachable
}

; Function Attrs: mustprogress uwtable
define linkonce_odr dso_local void @_ZN4Luau6detail14DenseHashTableIPvS2_S2_NS0_16ItemInterfaceSetIS2_EENS_16DenseHashPointerESt8equal_toIS2_EE7destroyEv(ptr noundef nonnull align 8 dereferenceable(34) %0) #3 comdat align 2 {
  %2 = alloca ptr, align 8
  store ptr %0, ptr %2, align 8, !tbaa !1868
  %3 = load ptr, ptr %2, align 8
  %4 = getelementptr inbounds nuw %"class.Luau::detail::DenseHashTable.871", ptr %3, i32 0, i32 0
  %5 = load ptr, ptr %4, align 8, !tbaa !1870
  %6 = getelementptr inbounds nuw %"class.Luau::detail::DenseHashTable.871", ptr %3, i32 0, i32 1
  %7 = load i64, ptr %6, align 8, !tbaa !1871
  call void @_ZN4Luau6detail16ItemInterfaceSetIPvE7destroyEPS2_m(ptr noundef %5, i64 noundef %7)
  %8 = getelementptr inbounds nuw %"class.Luau::detail::DenseHashTable.871", ptr %3, i32 0, i32 0
  %9 = load ptr, ptr %8, align 8, !tbaa !1870
  call void @_ZdlPv(ptr noundef %9) #22
  %10 = getelementptr inbounds nuw %"class.Luau::detail::DenseHashTable.871", ptr %3, i32 0, i32 0
  store ptr null, ptr %10, align 8, !tbaa !1870
  %11 = getelementptr inbounds nuw %"class.Luau::detail::DenseHashTable.871", ptr %3, i32 0, i32 1
  store i64 0, ptr %11, align 8, !tbaa !1871
  ret void
}

; Function Attrs: mustprogress nounwind uwtable
define linkonce_odr dso_local void @_ZN4Luau6detail14DenseHashTableIPvS2_S2_NS0_16ItemInterfaceSetIS2_EENS_16DenseHashPointerESt8equal_toIS2_EED2Ev(ptr noundef nonnull align 8 dereferenceable(34) %0) unnamed_addr #2 comdat align 2 personality ptr @__gxx_personality_v0 {
  %2 = alloca ptr, align 8
  store ptr %0, ptr %2, align 8, !tbaa !1868
  %3 = load ptr, ptr %2, align 8
  %4 = getelementptr inbounds nuw %"class.Luau::detail::DenseHashTable.871", ptr %3, i32 0, i32 0
  %5 = load ptr, ptr %4, align 8, !tbaa !1870
  %6 = icmp ne ptr %5, null
  br i1 %6, label %7, label %9

7:                                                ; preds = %1
  invoke void @_ZN4Luau6detail14DenseHashTableIPvS2_S2_NS0_16ItemInterfaceSetIS2_EENS_16DenseHashPointerESt8equal_toIS2_EE7destroyEv(ptr noundef nonnull align 8 dereferenceable(34) %3)
          to label %8 unwind label %10

8:                                                ; preds = %7
  br label %9

9:                                                ; preds = %8, %1
  ret void

10:                                               ; preds = %7
  %11 = landingpad { ptr, i32 }
          catch ptr null
  %12 = extractvalue { ptr, i32 } %11, 0
  call void @__clang_call_terminate(ptr %12) #23
  unreachable
}

; Function Attrs: inlinehint mustprogress nounwind uwtable
define linkonce_odr dso_local void @_ZN4Luau12DenseHashSetIPvNS_16DenseHashPointerESt8equal_toIS1_EED2Ev(ptr noundef nonnull align 8 dereferenceable(40) %0) unnamed_addr #6 comdat align 2 {
  %2 = alloca ptr, align 8
  store ptr %0, ptr %2, align 8, !tbaa !1863
  %3 = load ptr, ptr %2, align 8
  %4 = getelementptr inbounds nuw %"class.Luau::DenseHashSet.870", ptr %3, i32 0, i32 0
  call void @_ZN4Luau6detail14DenseHashTableIPvS2_S2_NS0_16ItemInterfaceSetIS2_EENS_16DenseHashPointerESt8equal_toIS2_EED2Ev(ptr noundef nonnull align 8 dereferenceable(34) %4) #22
  ret void
}

; Function Attrs: mustprogress nounwind uwtable
define linkonce_odr dso_local void @_ZN4Luau18GenericTypeVisitorINS_12DenseHashSetIPvNS_16DenseHashPointerESt8equal_toIS2_EEEED2Ev(ptr noundef nonnull align 8 dereferenceable(60) %0) unnamed_addr #2 comdat align 2 {
  %2 = alloca ptr, align 8
  store ptr %0, ptr %2, align 8, !tbaa !1827
  %3 = load ptr, ptr %2, align 8
  store ptr getelementptr inbounds inrange(-16, 272) ({ [36 x ptr] }, ptr @_ZTVN4Luau18GenericTypeVisitorINS_12DenseHashSetIPvNS_16DenseHashPointerESt8equal_toIS2_EEEEE, i32 0, i32 0, i32 2), ptr %3, align 8, !tbaa !322
  %4 = getelementptr inbounds nuw %"struct.Luau::GenericTypeVisitor", ptr %3, i32 0, i32 1
  call void @_ZN4Luau12DenseHashSetIPvNS_16DenseHashPointerESt8equal_toIS1_EED2Ev(ptr noundef nonnull align 8 dereferenceable(40) %4) #22
  ret void
}

; Function Attrs: inlinehint mustprogress nounwind uwtable
define internal void @_ZN4Luau12_GLOBAL__N_111HasFreeTypeD0Ev(ptr noundef nonnull align 8 dereferenceable(61) %0) unnamed_addr #6 align 2 {
  %2 = alloca ptr, align 8
  store ptr %0, ptr %2, align 8, !tbaa !2125
  %3 = load ptr, ptr %2, align 8
  call void @_ZN4Luau18GenericTypeVisitorINS_12DenseHashSetIPvNS_16DenseHashPointerESt8equal_toIS2_EEEED2Ev(ptr noundef nonnull align 8 dereferenceable(61) %3) #22
  call void @_ZdlPvm(ptr noundef %3, i64 noundef 64) #25
  ret void
}