; Function Attrs: inlinehint mustprogress nounwind uwtable
define internal void @_ZN4Luau12_GLOBAL__N_111HasFreeTypeD0Ev(ptr noundef nonnull align 8 dereferenceable(61) initializes((0, 8)) %0) unnamed_addr #7 align 2 personality ptr @__gxx_personality_v0 {
  store ptr getelementptr inbounds nuw inrange(-16, 272) (i8, ptr @_ZTVN4Luau18GenericTypeVisitorINS_12DenseHashSetIPvNS_16DenseHashPointerESt8equal_toIS2_EEEEE, i64 16), ptr %0, align 8, !tbaa !144
  %2 = getelementptr inbounds nuw i8, ptr %0, i64 8
  %3 = load ptr, ptr %2, align 8, !tbaa !507
  %.not.i.i.i = icmp eq ptr %3, null
  br i1 %.not.i.i.i, label %_ZN4Luau18GenericTypeVisitorINS_12DenseHashSetIPvNS_16DenseHashPointerESt8equal_toIS2_EEEED2Ev.exit, label %4

4:                                                ; preds = %1
  tail call void @_ZdlPv(ptr noundef nonnull %3) #28
  br label %_ZN4Luau18GenericTypeVisitorINS_12DenseHashSetIPvNS_16DenseHashPointerESt8equal_toIS2_EEEED2Ev.exit

_ZN4Luau18GenericTypeVisitorINS_12DenseHashSetIPvNS_16DenseHashPointerESt8equal_toIS2_EEEED2Ev.exit: ; preds = %1, %4
  tail call void @_ZdlPvm(ptr noundef nonnull %0, i64 noundef 64) #30
  ret void
}